target datalayout = "e-m:e-p270:32:32-p271:32:32-p272:64:64-i64:64-i128:128-f80:128-n8:16:32:64-S128"
target triple = "x86_64-pc-linux-gnu"

%"struct.__gnu_cxx::__ops::_Iter_comp_iter.351" = type { i8 }

; Function Attrs: mustprogress nounwind uwtable
define internal void @"_ZSt22__stable_sort_adaptiveIPPN4llvm11reassociate7XorOpndES4_lN9__gnu_cxx5__ops15_Iter_comp_iterIZNS0_15ReassociatePass11OptimizeXorEPNS0_11InstructionERNS0_15SmallVectorImplINS1_10ValueEntryEEEE3$_0EEEvT_SH_T0_T1_T2_"(ptr noundef %0, ptr noundef %1, ptr noundef %2, i64 noundef %3) #1 {
  %5 = alloca %"struct.__gnu_cxx::__ops::_Iter_comp_iter.351", align 1
  %6 = alloca ptr, align 8
  %7 = alloca ptr, align 8
  %8 = alloca ptr, align 8
  %9 = alloca i64, align 8
  %10 = alloca i64, align 8
  %11 = alloca ptr, align 8
  %12 = alloca %"struct.__gnu_cxx::__ops::_Iter_comp_iter.351", align 1
  %13 = alloca %"struct.__gnu_cxx::__ops::_Iter_comp_iter.351", align 1
  %14 = alloca %"struct.__gnu_cxx::__ops::_Iter_comp_iter.351", align 1
  %15 = alloca %"struct.__gnu_cxx::__ops::_Iter_comp_iter.351", align 1
  %16 = alloca %"struct.__gnu_cxx::__ops::_Iter_comp_iter.351", align 1
  store ptr %0, ptr %6, align 8
  store ptr %1, ptr %7, align 8
  store ptr %2, ptr %8, align 8
  store i64 %3, ptr %9, align 8
  %17 = load ptr, ptr %7, align 8
  %18 = load ptr, ptr %6, align 8
  %19 = ptrtoint ptr %17 to i64
  %20 = ptrtoint ptr %18 to i64
  %21 = sub i64 %19, %20
  %22 = sdiv exact i64 %21, 8
  %23 = add nsw i64 %22, 1
  %24 = sdiv i64 %23, 2
  store i64 %24, ptr %10, align 8
  %25 = load ptr, ptr %6, align 8
  %26 = load i64, ptr %10, align 8
  %27 = getelementptr inbounds ptr, ptr %25, i64 %26
  store ptr %27, ptr %11, align 8
  %28 = load i64, ptr %10, align 8
  %29 = load i64, ptr %9, align 8
  %30 = icmp sgt i64 %28, %29
  br i1 %30, label %31, label %40

31:                                               ; preds = %4
  %32 = load ptr, ptr %6, align 8
  %33 = load ptr, ptr %11, align 8
  %34 = load ptr, ptr %8, align 8
  %35 = load i64, ptr %9, align 8
  call void @llvm.memcpy.p0.p0.i64(ptr align 1 %12, ptr align 1 %5, i64 1, i1 false)
  call void @"_ZSt22__stable_sort_adaptiveIPPN4llvm11reassociate7XorOpndES4_lN9__gnu_cxx5__ops15_Iter_comp_iterIZNS0_15ReassociatePass11OptimizeXorEPNS0_11InstructionERNS0_15SmallVectorImplINS1_10ValueEntryEEEE3$_0EEEvT_SH_T0_T1_T2_"(ptr noundef %32, ptr noundef %33, ptr noundef %34, i64 noundef %35)
  %36 = load ptr, ptr %11, align 8
  %37 = load ptr, ptr %7, align 8
  %38 = load ptr, ptr %8, align 8
  %39 = load i64, ptr %9, align 8
  call void @llvm.memcpy.p0.p0.i64(ptr align 1 %13, ptr align 1 %5, i64 1, i1 false)
  call void @"_ZSt22__stable_sort_adaptiveIPPN4llvm11reassociate7XorOpndES4_lN9__gnu_cxx5__ops15_Iter_comp_iterIZNS0_15ReassociatePass11OptimizeXorEPNS0_11InstructionERNS0_15SmallVectorImplINS1_10ValueEntryEEEE3$_0EEEvT_SH_T0_T1_T2_"(ptr noundef %36, ptr noundef %37, ptr noundef %38, i64 noundef %39)
  br label %47

40:                                               ; preds = %4
  %41 = load ptr, ptr %6, align 8
  %42 = load ptr, ptr %11, align 8
  %43 = load ptr, ptr %8, align 8
  call void @llvm.memcpy.p0.p0.i64(ptr align 1 %14, ptr align 1 %5, i64 1, i1 false)
  call void @"_ZSt24__merge_sort_with_bufferIPPN4llvm11reassociate7XorOpndES4_N9__gnu_cxx5__ops15_Iter_comp_iterIZNS0_15ReassociatePass11OptimizeXorEPNS0_11InstructionERNS0_15SmallVectorImplINS1_10ValueEntryEEEE3$_0EEEvT_SH_T0_T1_"(ptr noundef %41, ptr noundef %42, ptr noundef %43)
  %44 = load ptr, ptr %11, align 8
  %45 = load ptr, ptr %7, align 8
  %46 = load ptr, ptr %8, align 8
  call void @llvm.memcpy.p0.p0.i64(ptr align 1 %15, ptr align 1 %5, i64 1, i1 false)
  call void @"_ZSt24__merge_sort_with_bufferIPPN4llvm11reassociate7XorOpndES4_N9__gnu_cxx5__ops15_Iter_comp_iterIZNS0_15ReassociatePass11OptimizeXorEPNS0_11InstructionERNS0_15SmallVectorImplINS1_10ValueEntryEEEE3$_0EEEvT_SH_T0_T1_"(ptr noundef %44, ptr noundef %45, ptr noundef %46)
  br label %47

47:                                               ; preds = %40, %31
  %48 = load ptr, ptr %6, align 8
  %49 = load ptr, ptr %11, align 8
  %50 = load ptr, ptr %7, align 8
  %51 = load ptr, ptr %11, align 8
  %52 = load ptr, ptr %6, align 8
  %53 = ptrtoint ptr %51 to i64
  %54 = ptrtoint ptr %52 to i64
  %55 = sub i64 %53, %54
  %56 = sdiv exact i64 %55, 8
  %57 = load ptr, ptr %7, align 8
  %58 = load ptr, ptr %11, align 8
  %59 = ptrtoint ptr %57 to i64
  %60 = ptrtoint ptr %58 to i64
  %61 = sub i64 %59, %60
  %62 = sdiv exact i64 %61, 8
  %63 = load ptr, ptr %8, align 8
  %64 = load i64, ptr %9, align 8
  call void @llvm.memcpy.p0.p0.i64(ptr align 1 %16, ptr align 1 %5, i64 1, i1 false)
  call void @"_ZSt16__merge_adaptiveIPPN4llvm11reassociate7XorOpndElS4_N9__gnu_cxx5__ops15_Iter_comp_iterIZNS0_15ReassociatePass11OptimizeXorEPNS0_11InstructionERNS0_15SmallVectorImplINS1_10ValueEntryEEEE3$_0EEEvT_SH_SH_T0_SI_T1_SI_T2_"(ptr noundef %48, ptr noundef %49, ptr noundef %50, i64 noundef %56, i64 noundef %62, ptr noundef %63, i64 noundef %64)
  ret void
}